target datalayout = "e-m:e-p270:32:32-p271:32:32-p272:64:64-i64:64-i128:128-f80:128-n8:16:32:64-S128"
target triple = "x86_64-pc-linux-gnu"

%struct.IpvideoContext = type { ptr, %struct.HpelDSPContext, ptr, ptr, ptr, ptr, ptr, i32, ptr, i32, i32, %struct.GetByteContext, %struct.GetByteContext, ptr, i32, i32, i32, [256 x i32] }
%struct.HpelDSPContext = type { [4 x [4 x ptr]], [4 x [4 x ptr]], [4 x [4 x ptr]], [4 x ptr] }
%struct.GetByteContext = type { ptr, ptr, ptr }

; Function Attrs: alwaysinline nounwind uwtable
define internal i32 @bytestream_get_byte(ptr noundef %0) #4 {
  %2 = alloca ptr, align 8
  store ptr %0, ptr %2, align 8, !tbaa !94
  %3 = load ptr, ptr %2, align 8, !tbaa !94
  %4 = load ptr, ptr %3, align 8, !tbaa !59
  %5 = getelementptr inbounds i8, ptr %4, i64 1
  store ptr %5, ptr %3, align 8, !tbaa !59
  %6 = load ptr, ptr %2, align 8, !tbaa !94
  %7 = load ptr, ptr %6, align 8, !tbaa !59
  %8 = getelementptr inbounds i8, ptr %7, i64 -1
  %9 = getelementptr inbounds i8, ptr %8, i64 0
  %10 = load i8, ptr %9, align 1, !tbaa !62
  %11 = zext i8 %10 to i32
  ret i32 %11
}

; Function Attrs: alwaysinline nounwind uwtable
define internal i32 @bytestream2_get_byteu(ptr noundef %0) #4 {
  %2 = alloca ptr, align 8
  store ptr %0, ptr %2, align 8, !tbaa !67
  %3 = load ptr, ptr %2, align 8, !tbaa !67
  %4 = getelementptr inbounds nuw %struct.GetByteContext, ptr %3, i32 0, i32 0
  %5 = call i32 @bytestream_get_byte(ptr noundef %4)
  ret i32 %5
}

; Function Attrs: alwaysinline nounwind uwtable
define internal i32 @bytestream2_get_byte(ptr noundef %0) #4 {
  %2 = alloca i32, align 4
  %3 = alloca ptr, align 8
  store ptr %0, ptr %3, align 8, !tbaa !67
  %4 = load ptr, ptr %3, align 8, !tbaa !67
  %5 = getelementptr inbounds nuw %struct.GetByteContext, ptr %4, i32 0, i32 1
  %6 = load ptr, ptr %5, align 8, !tbaa !71
  %7 = load ptr, ptr %3, align 8, !tbaa !67
  %8 = getelementptr inbounds nuw %struct.GetByteContext, ptr %7, i32 0, i32 0
  %9 = load ptr, ptr %8, align 8, !tbaa !69
  %10 = ptrtoint ptr %6 to i64
  %11 = ptrtoint ptr %9 to i64
  %12 = sub i64 %10, %11
  %13 = icmp slt i64 %12, 1
  br i1 %13, label %14, label %20

14:                                               ; preds = %1
  %15 = load ptr, ptr %3, align 8, !tbaa !67
  %16 = getelementptr inbounds nuw %struct.GetByteContext, ptr %15, i32 0, i32 1
  %17 = load ptr, ptr %16, align 8, !tbaa !71
  %18 = load ptr, ptr %3, align 8, !tbaa !67
  %19 = getelementptr inbounds nuw %struct.GetByteContext, ptr %18, i32 0, i32 0
  store ptr %17, ptr %19, align 8, !tbaa !69
  store i32 0, ptr %2, align 4
  br label %23

20:                                               ; preds = %1
  %21 = load ptr, ptr %3, align 8, !tbaa !67
  %22 = call i32 @bytestream2_get_byteu(ptr noundef %21)
  store i32 %22, ptr %2, align 4
  br label %23

23:                                               ; preds = %20, %14
  %24 = load i32, ptr %2, align 4
  ret i32 %24
}

; Function Attrs: nounwind uwtable
define internal i32 @ipvideo_decode_block_opcode_0x6_16(ptr noundef %0, ptr noundef %1) #1 {
  %3 = alloca ptr, align 8
  %4 = alloca ptr, align 8
  %5 = alloca i8, align 1
  %6 = alloca i8, align 1
  store ptr %0, ptr %3, align 8, !tbaa !29
  store ptr %1, ptr %4, align 8, !tbaa !53
  call void @llvm.lifetime.start.p0(i64 1, ptr %5) #11
  call void @llvm.lifetime.start.p0(i64 1, ptr %6) #11
  %7 = load ptr, ptr %3, align 8, !tbaa !29
  %8 = getelementptr inbounds nuw %struct.IpvideoContext, ptr %7, i32 0, i32 11
  %9 = call i32 @bytestream2_get_byte(ptr noundef %8)
  %10 = trunc i32 %9 to i8
  store i8 %10, ptr %5, align 1, !tbaa !62
  %11 = load ptr, ptr %3, align 8, !tbaa !29
  %12 = getelementptr inbounds nuw %struct.IpvideoContext, ptr %11, i32 0, i32 11
  %13 = call i32 @bytestream2_get_byte(ptr noundef %12)
  %14 = trunc i32 %13 to i8
  store i8 %14, ptr %6, align 1, !tbaa !62
  br label %15

15:                                               ; preds = %2
  br label %16

16:                                               ; preds = %15
  br label %17

17:                                               ; preds = %16
  %18 = load ptr, ptr %3, align 8, !tbaa !29
  %19 = load ptr, ptr %3, align 8, !tbaa !29
  %20 = getelementptr inbounds nuw %struct.IpvideoContext, ptr %19, i32 0, i32 2
  %21 = load ptr, ptr %20, align 8, !tbaa !41
  %22 = load ptr, ptr %4, align 8, !tbaa !53
  %23 = load i8, ptr %5, align 1, !tbaa !62
  %24 = sext i8 %23 to i32
  %25 = load i8, ptr %6, align 1, !tbaa !62
  %26 = sext i8 %25 to i32
  %27 = call i32 @copy_from(ptr noundef %18, ptr noundef %21, ptr noundef %22, i32 noundef %24, i32 noundef %26)
  call void @llvm.lifetime.end.p0(i64 1, ptr %6) #11
  call void @llvm.lifetime.end.p0(i64 1, ptr %5) #11
  ret i32 %27
}